; Function Attrs: mustprogress nofree norecurse nosync nounwind willreturn memory(read, argmem: readwrite, inaccessiblemem: none) uwtable
define internal void @_ZL10reverse_4dR8PJ_COORDP8PJconsts(ptr noundef nonnull align 8 captures(none) dereferenceable(32) %0, ptr noundef readonly captures(none) %1) #2 {
  %3 = getelementptr inbounds nuw i8, ptr %1, i64 88
  %4 = load ptr, ptr %3, align 8, !tbaa !50
  %5 = getelementptr inbounds nuw i8, ptr %4, i64 112
  %6 = load double, ptr %0, align 8, !tbaa !75
  %7 = load double, ptr %4, align 8, !tbaa !59
  %8 = fsub double %6, %7
  %9 = getelementptr inbounds nuw i8, ptr %0, i64 8
  %10 = load double, ptr %9, align 8, !tbaa !75
  %11 = getelementptr inbounds nuw i8, ptr %4, i64 8
  %12 = load double, ptr %11, align 8, !tbaa !60
  %13 = fsub double %10, %12
  %14 = getelementptr inbounds nuw i8, ptr %0, i64 16
  %15 = load double, ptr %14, align 8, !tbaa !75
  %16 = getelementptr inbounds nuw i8, ptr %4, i64 16
  %17 = load double, ptr %16, align 8, !tbaa !61
  %18 = fsub double %15, %17
  %19 = load double, ptr %5, align 8, !tbaa !76
  %20 = getelementptr inbounds nuw i8, ptr %4, i64 120
  %21 = load double, ptr %20, align 8, !tbaa !77
  %22 = fmul double %13, %21
  %23 = tail call double @llvm.fmuladd.f64(double %19, double %8, double %22)
  %24 = getelementptr inbounds nuw i8, ptr %4, i64 128
  %25 = load double, ptr %24, align 8, !tbaa !78
  %26 = tail call double @llvm.fmuladd.f64(double %25, double %18, double %23)
  store double %26, ptr %0, align 8, !tbaa !75
  %27 = getelementptr inbounds nuw i8, ptr %4, i64 136
  %28 = load double, ptr %27, align 8, !tbaa !79
  %29 = getelementptr inbounds nuw i8, ptr %4, i64 144
  %30 = load double, ptr %29, align 8, !tbaa !80
  %31 = fmul double %13, %30
  %32 = tail call double @llvm.fmuladd.f64(double %28, double %8, double %31)
  %33 = getelementptr inbounds nuw i8, ptr %4, i64 152
  %34 = load double, ptr %33, align 8, !tbaa !81
  %35 = tail call double @llvm.fmuladd.f64(double %34, double %18, double %32)
  store double %35, ptr %9, align 8, !tbaa !75
  %36 = getelementptr inbounds nuw i8, ptr %4, i64 160
  %37 = load double, ptr %36, align 8, !tbaa !82
  %38 = getelementptr inbounds nuw i8, ptr %4, i64 168
  %39 = load double, ptr %38, align 8, !tbaa !83
  %40 = fmul double %13, %39
  %41 = tail call double @llvm.fmuladd.f64(double %37, double %8, double %40)
  %42 = getelementptr inbounds nuw i8, ptr %4, i64 176
  %43 = load double, ptr %42, align 8, !tbaa !84
  %44 = tail call double @llvm.fmuladd.f64(double %43, double %18, double %41)
  store double %44, ptr %14, align 8, !tbaa !75
  %45 = getelementptr inbounds nuw i8, ptr %4, i64 184
  %46 = load double, ptr %45, align 8, !tbaa !85
  %47 = getelementptr inbounds nuw i8, ptr %0, i64 24
  %48 = load double, ptr %47, align 8, !tbaa !75
  %49 = getelementptr inbounds nuw i8, ptr %4, i64 24
  %50 = load double, ptr %49, align 8, !tbaa !62
  %51 = fsub double %48, %50
  %52 = fmul double %46, %51
  store double %52, ptr %47, align 8, !tbaa !75
  ret void
}